target datalayout = "e-m:e-p270:32:32-p271:32:32-p272:64:64-i64:64-i128:128-f80:128-n8:16:32:64-S128"
target triple = "x86_64-pc-linux-gnu"

; Function Attrs: nounwind uwtable
define hidden i32 @GetNumAvailableColors(ptr noundef %0, ptr noundef %1, i32 noundef %2) #0 {
  %4 = alloca ptr, align 8
  %5 = alloca ptr, align 8
  %6 = alloca i32, align 4
  %7 = alloca [1 x i64], align 8
  %8 = alloca [256 x i64], align 16
  %9 = alloca i32, align 4
  %10 = alloca i32, align 4
  %11 = alloca i32, align 4
  %12 = alloca i32, align 4
  %13 = alloca i64, align 8
  %14 = alloca i32, align 4
  store ptr %0, ptr %4, align 8
  store ptr %1, ptr %5, align 8
  store i32 %2, ptr %6, align 4
  store i32 0, ptr %11, align 4
  store i32 0, ptr %12, align 4
  store i32 256, ptr %14, align 4
  %15 = load i32, ptr %14, align 4
  %16 = load i32, ptr %6, align 4
  %17 = icmp ugt i32 %15, %16
  br i1 %17, label %18, label %20

18:                                               ; preds = %3
  %19 = load i32, ptr %6, align 4
  store i32 %19, ptr %14, align 4
  br label %20

20:                                               ; preds = %18, %3
  %21 = load ptr, ptr %5, align 8
  %22 = call i64 @XDefaultColormapOfScreen(ptr noundef %21)
  store i64 %22, ptr %13, align 8
  store i32 0, ptr %10, align 4
  %23 = load i32, ptr %14, align 4
  %24 = add i32 %23, 1
  store i32 %24, ptr %9, align 4
  store i32 0, ptr %11, align 4
  br label %25

25:                                               ; preds = %69, %20
  %26 = load i32, ptr %11, align 4
  %27 = icmp ne i32 %26, 0
  %28 = xor i1 %27, true
  br i1 %28, label %29, label %70

29:                                               ; preds = %25
  %30 = load ptr, ptr %4, align 8
  %31 = load i64, ptr %13, align 8
  %32 = getelementptr inbounds [1 x i64], ptr %7, i64 0, i64 0
  %33 = load i32, ptr %12, align 4
  %34 = getelementptr inbounds [256 x i64], ptr %8, i64 0, i64 0
  %35 = load i32, ptr %14, align 4
  %36 = call i32 @XAllocColorCells(ptr noundef %30, i64 noundef %31, i32 noundef 0, ptr noundef %32, i32 noundef %33, ptr noundef %34, i32 noundef %35)
  %37 = icmp ne i32 %36, 0
  br i1 %37, label %38, label %56

38:                                               ; preds = %29
  %39 = load i32, ptr %14, align 4
  store i32 %39, ptr %10, align 4
  %40 = load ptr, ptr %4, align 8
  %41 = load i64, ptr %13, align 8
  %42 = getelementptr inbounds [256 x i64], ptr %8, i64 0, i64 0
  %43 = load i32, ptr %14, align 4
  %44 = call i32 @XFreeColors(ptr noundef %40, i64 noundef %41, ptr noundef %42, i32 noundef %43, i64 noundef 0)
  %45 = load i32, ptr %10, align 4
  %46 = load i32, ptr %9, align 4
  %47 = sub i32 %46, 1
  %48 = icmp ult i32 %45, %47
  br i1 %48, label %49, label %54

49:                                               ; preds = %38
  %50 = load i32, ptr %10, align 4
  %51 = load i32, ptr %9, align 4
  %52 = add i32 %50, %51
  %53 = udiv i32 %52, 2
  store i32 %53, ptr %14, align 4
  br label %55

54:                                               ; preds = %38
  store i32 1, ptr %11, align 4
  br label %55

55:                                               ; preds = %54, %49
  br label %69

56:                                               ; preds = %29
  %57 = load i32, ptr %14, align 4
  store i32 %57, ptr %9, align 4
  %58 = load i32, ptr %9, align 4
  %59 = load i32, ptr %10, align 4
  %60 = add i32 %59, 1
  %61 = icmp ugt i32 %58, %60
  br i1 %61, label %62, label %67

62:                                               ; preds = %56
  %63 = load i32, ptr %10, align 4
  %64 = load i32, ptr %9, align 4
  %65 = add i32 %63, %64
  %66 = udiv i32 %65, 2
  store i32 %66, ptr %14, align 4
  br label %68

67:                                               ; preds = %56
  store i32 1, ptr %11, align 4
  br label %68

68:                                               ; preds = %67, %62
  br label %69

69:                                               ; preds = %68, %55
  br label %25, !llvm.loop !6

70:                                               ; preds = %25
  %71 = load i32, ptr %10, align 4
  ret i32 %71
}