; Function Attrs: nounwind uwtable
define hidden i32 @GetNumAvailableColors(ptr noundef %0, ptr noundef %1, i32 noundef %2) local_unnamed_addr #0 {
  %4 = alloca [1 x i64], align 8
  %5 = alloca [256 x i64], align 16
  %spec.select = tail call i32 @llvm.umin.i32(i32 %2, i32 256)
  %6 = tail call i64 @XDefaultColormapOfScreen(ptr noundef %1) #16
  %7 = add nuw nsw i32 %spec.select, 1
  br label %8

8:                                                ; preds = %17, %3
  %.133 = phi i32 [ %spec.select, %3 ], [ %19, %17 ]
  %.02332 = phi i32 [ %7, %3 ], [ %.124, %17 ]
  %.02531 = phi i32 [ 0, %3 ], [ %.126, %17 ]
  %9 = call i32 @XAllocColorCells(ptr noundef %0, i64 noundef %6, i32 noundef 0, ptr noundef nonnull %4, i32 noundef 0, ptr noundef nonnull %5, i32 noundef %.133) #16
  %.not30 = icmp eq i32 %9, 0
  br i1 %.not30, label %14, label %10

10:                                               ; preds = %8
  %11 = call i32 @XFreeColors(ptr noundef %0, i64 noundef %6, ptr noundef nonnull %5, i32 noundef %.133, i64 noundef 0) #16
  %12 = add nsw i32 %.02332, -1
  %13 = icmp ult i32 %.133, %12
  br i1 %13, label %17, label %20

14:                                               ; preds = %8
  %15 = add nuw nsw i32 %.02531, 1
  %16 = icmp ugt i32 %.133, %15
  br i1 %16, label %17, label %20

17:                                               ; preds = %14, %10
  %.02531.sink = phi i32 [ %.02332, %10 ], [ %.02531, %14 ]
  %.126 = phi i32 [ %.133, %10 ], [ %.02531, %14 ]
  %.124 = phi i32 [ %.02332, %10 ], [ %.133, %14 ]
  %18 = add nuw nsw i32 %.133, %.02531.sink
  %19 = lshr i32 %18, 1
  br label %8, !llvm.loop !6

20:                                               ; preds = %10, %14
  %.126.ph = phi i32 [ %.02531, %14 ], [ %.133, %10 ]
  ret i32 %.126.ph
}